target datalayout = "e-m:e-p270:32:32-p271:32:32-p272:64:64-i64:64-i128:128-f80:128-n8:16:32:64-S128"
target triple = "x86_64-pc-linux-gnu"

%struct.rb_data_type_struct = type { ptr, %struct.anon, ptr, ptr, i64 }
%struct.anon = type { ptr, ptr, ptr, ptr, [1 x ptr] }
%struct.pkcs7_st = type { ptr, i64, i32, i32, ptr, %union.anon, %struct.PKCS7_CTX_st }
%union.anon = type { ptr }
%struct.PKCS7_CTX_st = type { ptr, ptr }
%struct.pkcs7_signed_st = type { ptr, ptr, ptr, ptr, ptr, ptr }

@ossl_ts_resp_type = internal constant %struct.rb_data_type_struct { ptr @.str.50, %struct.anon { ptr null, ptr @ossl_ts_resp_free, ptr null, ptr null, [1 x ptr] zeroinitializer }, ptr null, ptr null, i64 33 }, align 8
@rb_eRuntimeError = external global i64, align 8
@.str.49 = private unnamed_addr constant [28 x i8] c"TS_RESP wasn't initialized.\00", align 1

; Function Attrs: inlinehint nounwind sspstrong uwtable
define internal ptr @ossl_check_const_PKCS7_SIGNER_INFO_sk_type(ptr noundef %0) #3 {
  %2 = alloca ptr, align 8
  store ptr %0, ptr %2, align 8, !tbaa !76
  %3 = load ptr, ptr %2, align 8, !tbaa !76
  ret ptr %3
}

; Function Attrs: nounwind sspstrong uwtable
define internal i64 @ossl_ts_resp_get_tsa_certificate(i64 noundef %0) #0 {
  %2 = alloca i64, align 8
  %3 = alloca i64, align 8
  %4 = alloca ptr, align 8
  %5 = alloca ptr, align 8
  %6 = alloca ptr, align 8
  %7 = alloca ptr, align 8
  %8 = alloca i32, align 4
  store i64 %0, ptr %3, align 8, !tbaa !6
  call void @llvm.lifetime.start.p0(i64 8, ptr %4) #16
  call void @llvm.lifetime.start.p0(i64 8, ptr %5) #16
  call void @llvm.lifetime.start.p0(i64 8, ptr %6) #16
  call void @llvm.lifetime.start.p0(i64 8, ptr %7) #16
  br label %9

9:                                                ; preds = %1
  %10 = load i64, ptr %3, align 8, !tbaa !6
  %11 = call ptr @rb_check_typeddata(i64 noundef %10, ptr noundef @ossl_ts_resp_type)
  store ptr %11, ptr %4, align 8, !tbaa !13
  %12 = load ptr, ptr %4, align 8, !tbaa !13
  %13 = icmp ne ptr %12, null
  br i1 %13, label %16, label %14

14:                                               ; preds = %9
  %15 = load i64, ptr @rb_eRuntimeError, align 8, !tbaa !6
  call void (i64, ptr, ...) @ossl_raise(i64 noundef %15, ptr noundef @.str.49) #17
  unreachable

16:                                               ; preds = %9
  br label %17

17:                                               ; preds = %16
  br label %18

18:                                               ; preds = %17
  %19 = load ptr, ptr %4, align 8, !tbaa !13
  %20 = call ptr @TS_RESP_get_token(ptr noundef %19)
  store ptr %20, ptr %5, align 8, !tbaa !33
  %21 = icmp ne ptr %20, null
  br i1 %21, label %23, label %22

22:                                               ; preds = %18
  store i64 4, ptr %2, align 8
  store i32 1, ptr %8, align 4
  br label %40

23:                                               ; preds = %18
  %24 = load ptr, ptr %5, align 8, !tbaa !33
  %25 = getelementptr inbounds nuw %struct.pkcs7_st, ptr %24, i32 0, i32 5
  %26 = load ptr, ptr %25, align 8, !tbaa !37
  %27 = getelementptr inbounds nuw %struct.pkcs7_signed_st, ptr %26, i32 0, i32 4
  %28 = load ptr, ptr %27, align 8, !tbaa !38
  %29 = call ptr @ossl_check_const_PKCS7_SIGNER_INFO_sk_type(ptr noundef %28)
  %30 = call ptr @OPENSSL_sk_value(ptr noundef %29, i32 noundef 0)
  store ptr %30, ptr %6, align 8, !tbaa !44
  %31 = load ptr, ptr %5, align 8, !tbaa !33
  %32 = load ptr, ptr %6, align 8, !tbaa !44
  %33 = call ptr @PKCS7_cert_from_signer_info(ptr noundef %31, ptr noundef %32)
  store ptr %33, ptr %7, align 8, !tbaa !46
  %34 = load ptr, ptr %7, align 8, !tbaa !46
  %35 = icmp ne ptr %34, null
  br i1 %35, label %37, label %36

36:                                               ; preds = %23
  store i64 4, ptr %2, align 8
  store i32 1, ptr %8, align 4
  br label %40

37:                                               ; preds = %23
  %38 = load ptr, ptr %7, align 8, !tbaa !46
  %39 = call i64 @ossl_x509_new(ptr noundef %38)
  store i64 %39, ptr %2, align 8
  store i32 1, ptr %8, align 4
  br label %40

40:                                               ; preds = %37, %36, %22
  call void @llvm.lifetime.end.p0(i64 8, ptr %7) #16
  call void @llvm.lifetime.end.p0(i64 8, ptr %6) #16
  call void @llvm.lifetime.end.p0(i64 8, ptr %5) #16
  call void @llvm.lifetime.end.p0(i64 8, ptr %4) #16
  %41 = load i64, ptr %2, align 8
  ret i64 %41
}