; Function Attrs: nounwind sspstrong uwtable
define internal i64 @ossl_ts_resp_get_tsa_certificate(i64 noundef %0) #0 {
  %2 = tail call ptr @rb_check_typeddata(i64 noundef %0, ptr noundef nonnull @ossl_ts_resp_type) #7
  %.not = icmp eq ptr %2, null
  br i1 %.not, label %3, label %5

3:                                                ; preds = %1
  %4 = load i64, ptr @rb_eRuntimeError, align 8, !tbaa !6
  tail call void (i64, ptr, ...) @ossl_raise(i64 noundef %4, ptr noundef nonnull @.str.49) #8
  unreachable

5:                                                ; preds = %1
  %6 = tail call ptr @TS_RESP_get_token(ptr noundef nonnull %2) #7
  %.not11 = icmp eq ptr %6, null
  br i1 %.not11, label %16, label %7

7:                                                ; preds = %5
  %8 = getelementptr inbounds nuw i8, ptr %6, i64 32
  %9 = load ptr, ptr %8, align 8, !tbaa !21
  %10 = getelementptr inbounds nuw i8, ptr %9, i64 32
  %11 = load ptr, ptr %10, align 8, !tbaa !22
  %12 = tail call ptr @OPENSSL_sk_value(ptr noundef %11, i32 noundef 0) #7
  %13 = tail call ptr @PKCS7_cert_from_signer_info(ptr noundef nonnull %6, ptr noundef %12) #7
  %.not12 = icmp eq ptr %13, null
  br i1 %.not12, label %16, label %14

14:                                               ; preds = %7
  %15 = tail call i64 @ossl_x509_new(ptr noundef nonnull %13) #7
  br label %16

16:                                               ; preds = %7, %5, %14
  %.0 = phi i64 [ %15, %14 ], [ 4, %5 ], [ 4, %7 ]
  ret i64 %.0
}